target datalayout = "e-m:e-p270:32:32-p271:32:32-p272:64:64-i64:64-i128:128-f80:128-n8:16:32:64-S128"
target triple = "x86_64-pc-linux-gnu"

%"class.clang::Stmt" = type { %union.anon }
%union.anon = type { %"class.clang::Stmt::PseudoObjectExprBitfields" }
%"class.clang::Stmt::PseudoObjectExprBitfields" = type { i64 }
%"class.clang::Expr" = type { %"class.clang::ValueStmt", %"class.clang::QualType" }
%"class.clang::ValueStmt" = type { %"class.clang::Stmt" }
%"class.clang::QualType" = type { %"class.llvm::PointerIntPair" }
%"class.llvm::PointerIntPair" = type { %"struct.llvm::detail::PunnedPointer" }
%"struct.llvm::detail::PunnedPointer" = type { [8 x i8] }
%"class.clang::APValue" = type { i32, [4 x i8], %"struct.llvm::AlignedCharArrayUnion" }
%"struct.llvm::AlignedCharArrayUnion" = type { [64 x i8] }
%"class.clang::Stmt::ConstantExprBitfields" = type <{ i32, i8, [3 x i8] }>
%"class.clang::FullExpr" = type { %"class.clang::Expr", ptr }
%"class.clang::Stmt::ExprBitfields" = type <{ i8, i16, i8 }>
%"class.clang::ConstantExpr" = type { %"class.clang::FullExpr" }

@_ZN5clang4Stmt17StatisticsEnabledE = external global i8, align 1

; Function Attrs: mustprogress nounwind uwtable
define linkonce_odr hidden noundef nonnull align 8 dereferenceable(8) ptr @_ZN4llvm6detail13PunnedPointerINS_12PointerUnionIJPKN5clang4TypeEPKNS3_8ExtQualsEEEEEaSEl(ptr noundef nonnull align 8 dereferenceable(8) %0, i64 noundef %1) #0 comdat align 2 {
  %3 = alloca ptr, align 8
  %4 = alloca i64, align 8
  store ptr %0, ptr %3, align 8
  store i64 %1, ptr %4, align 8
  %5 = load ptr, ptr %3, align 8
  %6 = getelementptr inbounds nuw %"struct.llvm::detail::PunnedPointer", ptr %5, i32 0, i32 0
  %7 = getelementptr inbounds [8 x i8], ptr %6, i64 0, i64 0
  call void @llvm.memcpy.p0.p0.i64(ptr align 8 %7, ptr align 8 %4, i64 8, i1 false)
  ret ptr %5
}

; Function Attrs: mustprogress nounwind uwtable
define linkonce_odr hidden void @_ZN4llvm6detail13PunnedPointerINS_12PointerUnionIJPKN5clang4TypeEPKNS3_8ExtQualsEEEEEC2El(ptr noundef nonnull align 8 dereferenceable(8) %0, i64 noundef %1) unnamed_addr #0 comdat align 2 {
  %3 = alloca ptr, align 8
  %4 = alloca i64, align 8
  store ptr %0, ptr %3, align 8
  store i64 %1, ptr %4, align 8
  %5 = load ptr, ptr %3, align 8
  %6 = load i64, ptr %4, align 8
  %7 = call noundef nonnull align 8 dereferenceable(8) ptr @_ZN4llvm6detail13PunnedPointerINS_12PointerUnionIJPKN5clang4TypeEPKNS3_8ExtQualsEEEEEaSEl(ptr noundef nonnull align 8 dereferenceable(8) %5, i64 noundef %6)
  ret void
}

; Function Attrs: mustprogress nounwind uwtable
define linkonce_odr hidden void @_ZN4llvm14PointerIntPairINS_12PointerUnionIJPKN5clang4TypeEPKNS2_8ExtQualsEEEELj3EjNS_21PointerLikeTypeTraitsIS9_EENS_18PointerIntPairInfoIS9_Lj3ESB_EEEC2Ev(ptr noundef nonnull align 8 dereferenceable(8) %0) unnamed_addr #0 comdat align 2 {
  %2 = alloca ptr, align 8
  store ptr %0, ptr %2, align 8
  %3 = load ptr, ptr %2, align 8
  %4 = getelementptr inbounds nuw %"class.llvm::PointerIntPair", ptr %3, i32 0, i32 0
  call void @_ZN4llvm6detail13PunnedPointerINS_12PointerUnionIJPKN5clang4TypeEPKNS3_8ExtQualsEEEEEC2El(ptr noundef nonnull align 8 dereferenceable(8) %4, i64 noundef 0)
  ret void
}

; Function Attrs: mustprogress nounwind uwtable
define linkonce_odr hidden void @_ZN5clang4StmtC2ENS0_9StmtClassE(ptr noundef nonnull align 8 dereferenceable(8) %0, i32 noundef %1) unnamed_addr #0 comdat align 2 {
  %3 = alloca ptr, align 8
  %4 = alloca i32, align 4
  store ptr %0, ptr %3, align 8
  store i32 %1, ptr %4, align 4
  %5 = load ptr, ptr %3, align 8
  %6 = load i32, ptr %4, align 4
  %7 = getelementptr inbounds nuw %"class.clang::Stmt", ptr %5, i32 0, i32 0
  %8 = trunc i32 %6 to i8
  store i8 %8, ptr %7, align 8
  %9 = load i8, ptr @_ZN5clang4Stmt17StatisticsEnabledE, align 1
  %10 = trunc i8 %9 to i1
  br i1 %10, label %11, label %13

11:                                               ; preds = %2
  %12 = load i32, ptr %4, align 4
  call void @_ZN5clang4Stmt12addStmtClassENS0_9StmtClassE(i32 noundef %12)
  br label %13

13:                                               ; preds = %11, %2
  ret void
}

; Function Attrs: mustprogress nounwind uwtable
define linkonce_odr hidden noundef i64 @_ZN4llvm15TrailingObjectsIN5clang12ConstantExprEJNS1_7APValueEmEE22callNumTrailingObjectsEPKS2_NS_25trailing_objects_internal19TrailingObjectsBase13OverloadTokenIS2_EE(ptr noundef %0) #0 comdat align 2 {
  %2 = alloca ptr, align 8
  store ptr %0, ptr %2, align 8
  ret i64 1
}

; Function Attrs: mustprogress nounwind uwtable
define linkonce_odr hidden noundef ptr @_ZN4llvm15TrailingObjectsIN5clang12ConstantExprEJNS1_7APValueEmEE22getTrailingObjectsImplEPS2_NS_25trailing_objects_internal19TrailingObjectsBase13OverloadTokenIS2_EE(ptr noundef %0) #0 comdat align 2 {
  %2 = alloca ptr, align 8
  store ptr %0, ptr %2, align 8
  %3 = load ptr, ptr %2, align 8
  ret ptr %3
}

; Function Attrs: mustprogress nounwind uwtable
define linkonce_odr hidden void @_ZN5clang4Expr7setTypeENS_8QualTypeE(ptr noundef nonnull align 8 dereferenceable(16) %0, i64 %1) #0 comdat align 2 {
  %3 = alloca %"class.clang::QualType", align 8
  %4 = alloca ptr, align 8
  %5 = getelementptr inbounds nuw %"class.clang::QualType", ptr %3, i32 0, i32 0
  %6 = getelementptr inbounds nuw %"class.llvm::PointerIntPair", ptr %5, i32 0, i32 0
  %7 = getelementptr inbounds nuw %"struct.llvm::detail::PunnedPointer", ptr %6, i32 0, i32 0
  store i64 %1, ptr %7, align 8
  store ptr %0, ptr %4, align 8
  %8 = load ptr, ptr %4, align 8
  %9 = getelementptr inbounds nuw %"class.clang::Expr", ptr %8, i32 0, i32 1
  call void @llvm.memcpy.p0.p0.i64(ptr align 8 %9, ptr align 8 %3, i64 8, i1 false)
  ret void
}

; Function Attrs: mustprogress nounwind uwtable
define linkonce_odr hidden void @_ZN5clang8QualTypeC2Ev(ptr noundef nonnull align 8 dereferenceable(8) %0) unnamed_addr #0 comdat align 2 {
  %2 = alloca ptr, align 8
  store ptr %0, ptr %2, align 8
  %3 = load ptr, ptr %2, align 8
  %4 = getelementptr inbounds nuw %"class.clang::QualType", ptr %3, i32 0, i32 0
  call void @_ZN4llvm14PointerIntPairINS_12PointerUnionIJPKN5clang4TypeEPKNS2_8ExtQualsEEEELj3EjNS_21PointerLikeTypeTraitsIS9_EENS_18PointerIntPairInfoIS9_Lj3ESB_EEEC2Ev(ptr noundef nonnull align 8 dereferenceable(8) %4)
  ret void
}

; Function Attrs: mustprogress nounwind uwtable
define linkonce_odr hidden void @_ZN5clang9ValueStmtCI2NS_4StmtEENS_4Stmt9StmtClassE(ptr noundef nonnull align 8 dereferenceable(8) %0, i32 noundef %1) unnamed_addr #0 comdat align 2 {
  %3 = alloca ptr, align 8
  %4 = alloca i32, align 4
  store ptr %0, ptr %3, align 8
  store i32 %1, ptr %4, align 4
  %5 = load ptr, ptr %3, align 8
  %6 = load i32, ptr %4, align 4
  call void @_ZN5clang4StmtC2ENS0_9StmtClassE(ptr noundef nonnull align 8 dereferenceable(8) %5, i32 noundef %6)
  ret void
}

; Function Attrs: mustprogress nounwind uwtable
define linkonce_odr hidden noundef ptr @_ZN4llvm25trailing_objects_internal19TrailingObjectsImplILi8EN5clang12ConstantExprENS_15TrailingObjectsIS3_JNS2_7APValueEmEEES3_JS5_mEE22getTrailingObjectsImplEPS3_NS0_19TrailingObjectsBase13OverloadTokenIS5_EE(ptr noundef %0) #0 comdat align 2 {
  %2 = alloca ptr, align 8
  %3 = alloca ptr, align 8
  store ptr %0, ptr %2, align 8
  %4 = load ptr, ptr %2, align 8
  %5 = call noundef ptr @_ZN4llvm15TrailingObjectsIN5clang12ConstantExprEJNS1_7APValueEmEE22getTrailingObjectsImplEPS2_NS_25trailing_objects_internal19TrailingObjectsBase13OverloadTokenIS2_EE(ptr noundef %4)
  %6 = load ptr, ptr %2, align 8
  %7 = call noundef i64 @_ZN4llvm15TrailingObjectsIN5clang12ConstantExprEJNS1_7APValueEmEE22callNumTrailingObjectsEPKS2_NS_25trailing_objects_internal19TrailingObjectsBase13OverloadTokenIS2_EE(ptr noundef %6)
  %8 = getelementptr inbounds %"class.clang::ConstantExpr", ptr %5, i64 %7
  store ptr %8, ptr %3, align 8
  %9 = load ptr, ptr %3, align 8
  ret ptr %9
}

; Function Attrs: mustprogress nounwind uwtable
define linkonce_odr hidden void @_ZN4llvm15TrailingObjectsIN5clang12ConstantExprEJNS1_7APValueEmEE31verifyTrailingObjectsAssertionsEv() #0 comdat align 2 {
  ret void
}

; Function Attrs: mustprogress nounwind uwtable
define linkonce_odr hidden void @_ZN5clang4Expr13setDependenceENS_19ExprDependenceScope14ExprDependenceE(ptr noundef nonnull align 8 dereferenceable(16) %0, i8 noundef zeroext %1) #0 comdat align 2 {
  %3 = alloca ptr, align 8
  %4 = alloca i8, align 1
  store ptr %0, ptr %3, align 8
  store i8 %1, ptr %4, align 1
  %5 = load ptr, ptr %3, align 8
  %6 = load i8, ptr %4, align 1
  %7 = zext i8 %6 to i32
  %8 = getelementptr inbounds nuw %"class.clang::Stmt", ptr %5, i32 0, i32 0
  %9 = getelementptr inbounds nuw %"class.clang::Stmt::ExprBitfields", ptr %8, i32 0, i32 1
  %10 = trunc i32 %7 to i16
  %11 = load i16, ptr %9, align 1
  %12 = and i16 %10, 31
  %13 = shl i16 %12, 5
  %14 = and i16 %11, -993
  %15 = or i16 %14, %13
  store i16 %15, ptr %9, align 1
  ret void
}

; Function Attrs: mustprogress nounwind uwtable
define linkonce_odr hidden void @_ZN5clang4ExprC2ENS_4Stmt9StmtClassENS_8QualTypeENS_13ExprValueKindENS_14ExprObjectKindE(ptr noundef nonnull align 8 dereferenceable(16) %0, i32 noundef %1, i64 %2, i32 noundef %3, i32 noundef %4) unnamed_addr #0 comdat align 2 {
  %6 = alloca %"class.clang::QualType", align 8
  %7 = alloca ptr, align 8
  %8 = alloca i32, align 4
  %9 = alloca i32, align 4
  %10 = alloca i32, align 4
  %11 = alloca %"class.clang::QualType", align 8
  %12 = getelementptr inbounds nuw %"class.clang::QualType", ptr %6, i32 0, i32 0
  %13 = getelementptr inbounds nuw %"class.llvm::PointerIntPair", ptr %12, i32 0, i32 0
  %14 = getelementptr inbounds nuw %"struct.llvm::detail::PunnedPointer", ptr %13, i32 0, i32 0
  store i64 %2, ptr %14, align 8
  store ptr %0, ptr %7, align 8
  store i32 %1, ptr %8, align 4
  store i32 %3, ptr %9, align 4
  store i32 %4, ptr %10, align 4
  %15 = load ptr, ptr %7, align 8
  %16 = load i32, ptr %8, align 4
  call void @_ZN5clang9ValueStmtCI2NS_4StmtEENS_4Stmt9StmtClassE(ptr noundef nonnull align 8 dereferenceable(8) %15, i32 noundef %16)
  %17 = getelementptr inbounds nuw %"class.clang::Expr", ptr %15, i32 0, i32 1
  call void @_ZN5clang8QualTypeC2Ev(ptr noundef nonnull align 8 dereferenceable(8) %17)
  %18 = getelementptr inbounds nuw %"class.clang::Stmt", ptr %15, i32 0, i32 0
  %19 = getelementptr inbounds nuw %"class.clang::Stmt::ExprBitfields", ptr %18, i32 0, i32 1
  %20 = load i16, ptr %19, align 1
  %21 = and i16 %20, -993
  %22 = or i16 %21, 0
  store i16 %22, ptr %19, align 1
  %23 = load i32, ptr %9, align 4
  %24 = getelementptr inbounds nuw %"class.clang::Stmt", ptr %15, i32 0, i32 0
  %25 = getelementptr inbounds nuw %"class.clang::Stmt::ExprBitfields", ptr %24, i32 0, i32 1
  %26 = trunc i32 %23 to i16
  %27 = load i16, ptr %25, align 1
  %28 = and i16 %26, 3
  %29 = and i16 %27, -4
  %30 = or i16 %29, %28
  store i16 %30, ptr %25, align 1
  %31 = load i32, ptr %10, align 4
  %32 = getelementptr inbounds nuw %"class.clang::Stmt", ptr %15, i32 0, i32 0
  %33 = getelementptr inbounds nuw %"class.clang::Stmt::ExprBitfields", ptr %32, i32 0, i32 1
  %34 = trunc i32 %31 to i16
  %35 = load i16, ptr %33, align 1
  %36 = and i16 %34, 7
  %37 = shl i16 %36, 2
  %38 = and i16 %35, -29
  %39 = or i16 %38, %37
  store i16 %39, ptr %33, align 1
  call void @llvm.memcpy.p0.p0.i64(ptr align 8 %11, ptr align 8 %6, i64 8, i1 false)
  %40 = getelementptr inbounds nuw %"class.clang::QualType", ptr %11, i32 0, i32 0
  %41 = getelementptr inbounds nuw %"class.llvm::PointerIntPair", ptr %40, i32 0, i32 0
  %42 = getelementptr inbounds nuw %"struct.llvm::detail::PunnedPointer", ptr %41, i32 0, i32 0
  %43 = load i64, ptr %42, align 8
  call void @_ZN5clang4Expr7setTypeENS_8QualTypeE(ptr noundef nonnull align 8 dereferenceable(16) %15, i64 %43)
  ret void
}

; Function Attrs: mustprogress nounwind uwtable
define linkonce_odr hidden noundef i32 @_ZNK5clang4Expr13getObjectKindEv(ptr noundef nonnull align 8 dereferenceable(16) %0) #0 comdat align 2 {
  %2 = alloca ptr, align 8
  store ptr %0, ptr %2, align 8
  %3 = load ptr, ptr %2, align 8
  %4 = getelementptr inbounds nuw %"class.clang::Stmt", ptr %3, i32 0, i32 0
  %5 = getelementptr inbounds nuw %"class.clang::Stmt::ExprBitfields", ptr %4, i32 0, i32 1
  %6 = load i16, ptr %5, align 1
  %7 = lshr i16 %6, 2
  %8 = and i16 %7, 7
  %9 = zext i16 %8 to i32
  ret i32 %9
}

; Function Attrs: mustprogress nounwind uwtable
define linkonce_odr hidden noundef i32 @_ZNK5clang4Expr12getValueKindEv(ptr noundef nonnull align 8 dereferenceable(16) %0) #0 comdat align 2 {
  %2 = alloca ptr, align 8
  store ptr %0, ptr %2, align 8
  %3 = load ptr, ptr %2, align 8
  %4 = getelementptr inbounds nuw %"class.clang::Stmt", ptr %3, i32 0, i32 0
  %5 = getelementptr inbounds nuw %"class.clang::Stmt::ExprBitfields", ptr %4, i32 0, i32 1
  %6 = load i16, ptr %5, align 1
  %7 = and i16 %6, 3
  %8 = zext i16 %7 to i32
  ret i32 %8
}

; Function Attrs: mustprogress nounwind uwtable
define linkonce_odr hidden i64 @_ZNK5clang4Expr7getTypeEv(ptr noundef nonnull align 8 dereferenceable(16) %0) #0 comdat align 2 {
  %2 = alloca %"class.clang::QualType", align 8
  %3 = alloca ptr, align 8
  store ptr %0, ptr %3, align 8
  %4 = load ptr, ptr %3, align 8
  %5 = getelementptr inbounds nuw %"class.clang::Expr", ptr %4, i32 0, i32 1
  call void @llvm.memcpy.p0.p0.i64(ptr align 8 %2, ptr align 8 %5, i64 8, i1 false)
  %6 = getelementptr inbounds nuw %"class.clang::QualType", ptr %2, i32 0, i32 0
  %7 = getelementptr inbounds nuw %"class.llvm::PointerIntPair", ptr %6, i32 0, i32 0
  %8 = getelementptr inbounds nuw %"struct.llvm::detail::PunnedPointer", ptr %7, i32 0, i32 0
  %9 = load i64, ptr %8, align 8
  ret i64 %9
}

; Function Attrs: mustprogress nounwind uwtable
define linkonce_odr hidden void @_ZN5clang7APValueC2Ev(ptr noundef nonnull align 8 dereferenceable(72) %0) unnamed_addr #0 comdat align 2 {
  %2 = alloca ptr, align 8
  store ptr %0, ptr %2, align 8
  %3 = load ptr, ptr %2, align 8
  %4 = getelementptr inbounds nuw %"class.clang::APValue", ptr %3, i32 0, i32 0
  store i32 0, ptr %4, align 8
  ret void
}

; Function Attrs: mustprogress nounwind uwtable
define linkonce_odr hidden noundef ptr @_ZN4llvm15TrailingObjectsIN5clang12ConstantExprEJNS1_7APValueEmEE18getTrailingObjectsIS3_EEPT_v(ptr noundef nonnull align 8 dereferenceable(8) %0) #0 comdat align 2 {
  %2 = alloca ptr, align 8
  store ptr %0, ptr %2, align 8
  %3 = load ptr, ptr %2, align 8
  call void @_ZN4llvm15TrailingObjectsIN5clang12ConstantExprEJNS1_7APValueEmEE31verifyTrailingObjectsAssertionsEv()
  %4 = call noundef ptr @_ZN4llvm25trailing_objects_internal19TrailingObjectsImplILi8EN5clang12ConstantExprENS_15TrailingObjectsIS3_JNS2_7APValueEmEEES3_JS5_mEE22getTrailingObjectsImplEPS3_NS0_19TrailingObjectsBase13OverloadTokenIS5_EE(ptr noundef %3)
  ret ptr %4
}

; Function Attrs: mustprogress nounwind uwtable
define linkonce_odr hidden noundef i32 @_ZN4llvm13to_underlyingIN5clang25ConstantResultStorageKindEEENSt15underlying_typeIT_E4typeES4_(i32 noundef %0) #0 comdat {
  %2 = alloca i32, align 4
  store i32 %0, ptr %2, align 4
  %3 = load i32, ptr %2, align 4
  ret i32 %3
}

; Function Attrs: mustprogress nounwind uwtable
define linkonce_odr hidden void @_ZN5clang8FullExprC2ENS_4Stmt9StmtClassEPNS_4ExprE(ptr noundef nonnull align 8 dereferenceable(24) %0, i32 noundef %1, ptr noundef %2) unnamed_addr #0 comdat align 2 {
  %4 = alloca ptr, align 8
  %5 = alloca i32, align 4
  %6 = alloca ptr, align 8
  %7 = alloca %"class.clang::QualType", align 8
  store ptr %0, ptr %4, align 8
  store i32 %1, ptr %5, align 4
  store ptr %2, ptr %6, align 8
  %8 = load ptr, ptr %4, align 8
  %9 = load i32, ptr %5, align 4
  %10 = load ptr, ptr %6, align 8
  %11 = call i64 @_ZNK5clang4Expr7getTypeEv(ptr noundef nonnull align 8 dereferenceable(16) %10)
  %12 = getelementptr inbounds nuw %"class.clang::QualType", ptr %7, i32 0, i32 0
  %13 = getelementptr inbounds nuw %"class.llvm::PointerIntPair", ptr %12, i32 0, i32 0
  %14 = getelementptr inbounds nuw %"struct.llvm::detail::PunnedPointer", ptr %13, i32 0, i32 0
  store i64 %11, ptr %14, align 8
  %15 = load ptr, ptr %6, align 8
  %16 = call noundef i32 @_ZNK5clang4Expr12getValueKindEv(ptr noundef nonnull align 8 dereferenceable(16) %15)
  %17 = load ptr, ptr %6, align 8
  %18 = call noundef i32 @_ZNK5clang4Expr13getObjectKindEv(ptr noundef nonnull align 8 dereferenceable(16) %17)
  %19 = getelementptr inbounds nuw %"class.clang::QualType", ptr %7, i32 0, i32 0
  %20 = getelementptr inbounds nuw %"class.llvm::PointerIntPair", ptr %19, i32 0, i32 0
  %21 = getelementptr inbounds nuw %"struct.llvm::detail::PunnedPointer", ptr %20, i32 0, i32 0
  %22 = load i64, ptr %21, align 8
  call void @_ZN5clang4ExprC2ENS_4Stmt9StmtClassENS_8QualTypeENS_13ExprValueKindENS_14ExprObjectKindE(ptr noundef nonnull align 8 dereferenceable(16) %8, i32 noundef %9, i64 %22, i32 noundef %16, i32 noundef %18)
  %23 = getelementptr inbounds nuw %"class.clang::FullExpr", ptr %8, i32 0, i32 1
  %24 = load ptr, ptr %6, align 8
  store ptr %24, ptr %23, align 8
  %25 = call noundef zeroext i8 @_ZN5clang17computeDependenceEPNS_8FullExprE(ptr noundef %8)
  call void @_ZN5clang4Expr13setDependenceENS_19ExprDependenceScope14ExprDependenceE(ptr noundef nonnull align 8 dereferenceable(16) %8, i8 noundef zeroext %25)
  ret void
}

; Function Attrs: mustprogress nounwind uwtable
define dso_local void @_ZN5clang12ConstantExprC2EPNS_4ExprENS_25ConstantResultStorageKindEb(ptr noundef nonnull align 8 dereferenceable(24) %0, ptr noundef %1, i32 noundef %2, i1 noundef zeroext %3) unnamed_addr #0 align 2 {
  %5 = alloca ptr, align 8
  %6 = alloca ptr, align 8
  %7 = alloca i32, align 4
  %8 = alloca i8, align 1
  store ptr %0, ptr %5, align 8
  store ptr %1, ptr %6, align 8
  store i32 %2, ptr %7, align 4
  %9 = zext i1 %3 to i8
  store i8 %9, ptr %8, align 1
  %10 = load ptr, ptr %5, align 8
  %11 = load ptr, ptr %6, align 8
  call void @_ZN5clang8FullExprC2ENS_4Stmt9StmtClassEPNS_4ExprE(ptr noundef nonnull align 8 dereferenceable(24) %10, i32 noundef 61, ptr noundef %11)
  %12 = load i32, ptr %7, align 4
  %13 = call noundef i32 @_ZN4llvm13to_underlyingIN5clang25ConstantResultStorageKindEEENSt15underlying_typeIT_E4typeES4_(i32 noundef %12)
  %14 = getelementptr inbounds nuw %"class.clang::Stmt", ptr %10, i32 0, i32 0
  %15 = load i32, ptr %14, align 8
  %16 = and i32 %13, 3
  %17 = shl i32 %16, 18
  %18 = and i32 %15, -786433
  %19 = or i32 %18, %17
  store i32 %19, ptr %14, align 8
  %20 = getelementptr inbounds nuw %"class.clang::Stmt", ptr %10, i32 0, i32 0
  %21 = load i32, ptr %20, align 8
  %22 = and i32 %21, -15728641
  %23 = or i32 %22, 0
  store i32 %23, ptr %20, align 8
  %24 = getelementptr inbounds nuw %"class.clang::Stmt", ptr %10, i32 0, i32 0
  %25 = load i32, ptr %24, align 8
  %26 = and i32 %25, -16777217
  %27 = or i32 %26, 0
  store i32 %27, ptr %24, align 8
  %28 = getelementptr inbounds nuw %"class.clang::Stmt", ptr %10, i32 0, i32 0
  %29 = load i32, ptr %28, align 8
  %30 = and i32 %29, 33554431
  %31 = or i32 %30, 0
  store i32 %31, ptr %28, align 8
  %32 = getelementptr inbounds nuw %"class.clang::Stmt", ptr %10, i32 0, i32 0
  %33 = getelementptr inbounds nuw %"class.clang::Stmt::ConstantExprBitfields", ptr %32, i32 0, i32 1
  %34 = load i8, ptr %33, align 4
  %35 = and i8 %34, -2
  %36 = or i8 %35, 0
  store i8 %36, ptr %33, align 4
  %37 = load i8, ptr %8, align 1
  %38 = trunc i8 %37 to i1
  %39 = zext i1 %38 to i32
  %40 = getelementptr inbounds nuw %"class.clang::Stmt", ptr %10, i32 0, i32 0
  %41 = getelementptr inbounds nuw %"class.clang::Stmt::ConstantExprBitfields", ptr %40, i32 0, i32 1
  %42 = trunc i32 %39 to i8
  %43 = load i8, ptr %41, align 4
  %44 = and i8 %42, 1
  %45 = shl i8 %44, 1
  %46 = and i8 %43, -3
  %47 = or i8 %46, %45
  store i8 %47, ptr %41, align 4
  %48 = load i32, ptr %7, align 4
  %49 = icmp eq i32 %48, 2
  br i1 %49, label %50, label %52

50:                                               ; preds = %4
  %51 = call noundef ptr @_ZN4llvm15TrailingObjectsIN5clang12ConstantExprEJNS1_7APValueEmEE18getTrailingObjectsIS3_EEPT_v(ptr noundef nonnull align 8 dereferenceable(8) %10)
  call void @_ZN5clang7APValueC2Ev(ptr noundef nonnull align 8 dereferenceable(72) %51)
  br label %52

52:                                               ; preds = %50, %4
  ret void
}