; Function Attrs: mustprogress nounwind uwtable
define dso_local void @_ZN5clang12ConstantExprC2EPNS_4ExprENS_25ConstantResultStorageKindEb(ptr noundef nonnull align 8 dereferenceable(24) %0, ptr noundef %1, i32 noundef %2, i1 noundef zeroext %3) unnamed_addr #1 align 2 {
  %5 = getelementptr inbounds nuw i8, ptr %1, i64 8
  %.sroa.0.0.copyload.i.i = load i64, ptr %5, align 8
  %6 = getelementptr inbounds nuw i8, ptr %1, i64 1
  %7 = load i16, ptr %6, align 1
  store i8 61, ptr %0, align 8
  %8 = load i8, ptr @_ZN5clang4Stmt17StatisticsEnabledE, align 1
  %9 = trunc i8 %8 to i1
  br i1 %9, label %10, label %_ZN5clang8FullExprC2ENS_4Stmt9StmtClassEPNS_4ExprE.exit

10:                                               ; preds = %4
  tail call void @_ZN5clang4Stmt12addStmtClassENS0_9StmtClassE(i32 noundef 61) #28
  br label %_ZN5clang8FullExprC2ENS_4Stmt9StmtClassEPNS_4ExprE.exit

_ZN5clang8FullExprC2ENS_4Stmt9StmtClassEPNS_4ExprE.exit: ; preds = %4, %10
  %11 = getelementptr inbounds nuw i8, ptr %0, i64 8
  %12 = getelementptr inbounds nuw i8, ptr %0, i64 1
  %13 = load i16, ptr %12, align 1
  %14 = and i16 %13, -1024
  %15 = and i16 %7, 31
  %16 = or disjoint i16 %14, %15
  store i16 %16, ptr %12, align 1
  store i64 %.sroa.0.0.copyload.i.i, ptr %11, align 8
  %17 = getelementptr inbounds nuw i8, ptr %0, i64 16
  store ptr %1, ptr %17, align 8
  %18 = tail call noundef zeroext i8 @_ZN5clang17computeDependenceEPNS_8FullExprE(ptr noundef nonnull %0) #28
  %19 = load i16, ptr %12, align 1
  %20 = and i8 %18, 31
  %21 = zext nneg i8 %20 to i16
  %22 = shl nuw nsw i16 %21, 5
  %23 = and i16 %19, -993
  %24 = or disjoint i16 %22, %23
  store i16 %24, ptr %12, align 1
  %25 = load i32, ptr %0, align 8
  %26 = shl i32 %2, 18
  %27 = and i32 %26, 786432
  %28 = and i32 %25, 262143
  %29 = or disjoint i32 %28, %27
  store i32 %29, ptr %0, align 8
  %30 = getelementptr inbounds nuw i8, ptr %0, i64 4
  %31 = load i8, ptr %30, align 4
  %32 = select i1 %3, i8 2, i8 0
  %33 = and i8 %31, -4
  %34 = or disjoint i8 %33, %32
  store i8 %34, ptr %30, align 4
  %35 = icmp eq i32 %2, 2
  br i1 %35, label %36, label %38

36:                                               ; preds = %_ZN5clang8FullExprC2ENS_4Stmt9StmtClassEPNS_4ExprE.exit
  %37 = getelementptr inbounds i8, ptr %0, i64 24
  store i32 0, ptr %37, align 8
  br label %38

38:                                               ; preds = %36, %_ZN5clang8FullExprC2ENS_4Stmt9StmtClassEPNS_4ExprE.exit
  ret void
}